; Function Attrs: nounwind uwtable
define ptr @cli_event_get_name(ptr noundef %0, i32 noundef %1) local_unnamed_addr #5 {
  %.not.i = icmp eq ptr %0, null
  br i1 %.not.i, label %get_event.exit.thread, label %3

3:                                                ; preds = %2
  %4 = getelementptr inbounds nuw i8, ptr %0, i64 40
  %5 = load i32, ptr %4, align 8, !tbaa !3
  %.not8.i = icmp ult i32 %1, %5
  br i1 %.not8.i, label %get_event.exit, label %6

6:                                                ; preds = %3
  tail call void (ptr, ...) @cli_warnmsg(ptr noundef nonnull @.str.8, ptr noundef nonnull @.str.18) #14
  %7 = getelementptr inbounds nuw i8, ptr %0, i64 28
  %8 = load i16, ptr %7, align 4
  %9 = lshr i16 %8, 8
  %trunc.i.i.i = trunc nuw i16 %9 to i8
  switch i8 %trunc.i.i.i, label %get_event.exit.thread [
    i8 0, label %10
    i8 1, label %15
  ]

10:                                               ; preds = %6
  %11 = getelementptr inbounds nuw i8, ptr %0, i64 16
  store ptr @.str.18, ptr %11, align 8, !tbaa !17
  %12 = getelementptr inbounds nuw i8, ptr %0, i64 24
  %13 = load i32, ptr %12, align 8, !tbaa !18
  %14 = add i32 %13, 1
  store i32 %14, ptr %12, align 8, !tbaa !18
  br label %get_event.exit.thread

15:                                               ; preds = %6
  %16 = getelementptr inbounds nuw i8, ptr %0, i64 24
  %17 = load i32, ptr %16, align 8, !tbaa !18
  %18 = shl i32 %17, 3
  %19 = add i32 %18, 8
  %20 = getelementptr inbounds nuw i8, ptr %0, i64 16
  %21 = load ptr, ptr %20, align 8, !tbaa !17
  %22 = zext i32 %19 to i64
  %23 = tail call ptr @cli_safer_realloc(ptr noundef %21, i64 noundef %22) #14
  %.not.i.i.i.i = icmp eq ptr %23, null
  br i1 %.not.i.i.i.i, label %24, label %32

24:                                               ; preds = %15
  %25 = getelementptr inbounds nuw i8, ptr %0, i64 32
  %26 = load i64, ptr %25, align 8, !tbaa !15
  %27 = add i64 %26, %22
  store i64 %27, ptr %25, align 8, !tbaa !15
  %28 = getelementptr inbounds nuw i8, ptr %0, i64 44
  %29 = load i32, ptr %28, align 4, !tbaa !16
  %30 = add i32 %29, 1
  store i32 %30, ptr %28, align 4, !tbaa !16
  %.not6.i.i.i.i.i = icmp eq i32 %19, 0
  br i1 %.not6.i.i.i.i.i, label %get_event.exit.thread, label %31

31:                                               ; preds = %24
  tail call void (ptr, ...) @cli_errmsg(ptr noundef nonnull @.str.1, i32 noundef %19) #14
  br label %get_event.exit.thread

32:                                               ; preds = %15
  store ptr %23, ptr %20, align 8, !tbaa !17
  %33 = load i32, ptr %16, align 8, !tbaa !18
  %34 = zext i32 %33 to i64
  %35 = getelementptr inbounds nuw %union.ev_val, ptr %23, i64 %34
  store i64 ptrtoint (ptr @.str.18 to i64), ptr %35, align 8, !tbaa !17
  %36 = load i32, ptr %16, align 8, !tbaa !18
  %37 = add i32 %36, 1
  store i32 %37, ptr %16, align 8, !tbaa !18
  br label %get_event.exit.thread

get_event.exit:                                   ; preds = %3
  %38 = load ptr, ptr %0, align 8, !tbaa !13
  %.not = icmp eq ptr %38, null
  br i1 %.not, label %get_event.exit.thread, label %39

39:                                               ; preds = %get_event.exit
  %40 = zext i32 %1 to i64
  %41 = getelementptr inbounds nuw %struct.cli_event, ptr %38, i64 %40
  %42 = load ptr, ptr %41, align 8, !tbaa !19
  br label %get_event.exit.thread

get_event.exit.thread:                            ; preds = %32, %31, %24, %10, %6, %2, %get_event.exit, %39
  %.0 = phi ptr [ %42, %39 ], [ null, %get_event.exit ], [ null, %2 ], [ null, %6 ], [ null, %10 ], [ null, %24 ], [ null, %31 ], [ null, %32 ]
  ret ptr %.0
}